; Function Attrs: mustprogress uwtable
define hidden noundef zeroext i1 @_ZN18OpenImageIO_v2_6_09PNMOutput5closeEv(ptr noundef nonnull align 8 dereferenceable(280) %this) unnamed_addr #5 align 2 {
entry:
  %agg.tmp = alloca %"struct.OpenImageIO_v2_6_0::TypeDesc", align 4
  %call = tail call noundef zeroext i1 @_ZNK18OpenImageIO_v2_6_011ImageOutput14ioproxy_openedEv(ptr noundef nonnull align 8 dereferenceable(184) %this)
  br i1 %call, label %if.end, label %return

if.end:                                           ; preds = %entry
  %tile_width = getelementptr inbounds i8, ptr %this, i64 56
  %0 = load i32, ptr %tile_width, align 8
  %tobool.not = icmp eq i32 %0, 0
  br i1 %tobool.not, label %if.end14, label %if.then2

if.then2:                                         ; preds = %if.end
  %y = getelementptr inbounds i8, ptr %this, i64 12
  %1 = load i32, ptr %y, align 4
  %height = getelementptr inbounds i8, ptr %this, i64 24
  %2 = load i32, ptr %height, align 8
  %add = add nsw i32 %2, %1
  %format = getelementptr inbounds i8, ptr %this, i64 72
  %3 = load i8, ptr %format, align 8
  store i8 %3, ptr %agg.tmp, align 4
  %aggregate.i = getelementptr inbounds i8, ptr %agg.tmp, i64 1
  %aggregate3.i = getelementptr inbounds i8, ptr %this, i64 73
  %4 = load i8, ptr %aggregate3.i, align 1
  store i8 %4, ptr %aggregate.i, align 1
  %vecsemantics.i = getelementptr inbounds i8, ptr %agg.tmp, i64 2
  %vecsemantics4.i = getelementptr inbounds i8, ptr %this, i64 74
  %5 = load i8, ptr %vecsemantics4.i, align 2
  store i8 %5, ptr %vecsemantics.i, align 2
  %reserved.i = getelementptr inbounds i8, ptr %agg.tmp, i64 3
  store i8 0, ptr %reserved.i, align 1
  %arraylen.i = getelementptr inbounds i8, ptr %agg.tmp, i64 4
  %arraylen5.i = getelementptr inbounds i8, ptr %this, i64 76
  %6 = load i32, ptr %arraylen5.i, align 4
  store i32 %6, ptr %arraylen.i, align 4
  %m_tilebuffer = getelementptr inbounds i8, ptr %this, i64 256
  %7 = load ptr, ptr %m_tilebuffer, align 8
  %call9 = call noundef zeroext i1 @_ZN18OpenImageIO_v2_6_011ImageOutput15write_scanlinesEiiiNS_8TypeDescEPKvll(ptr noundef nonnull align 8 dereferenceable(184) %this, i32 noundef %1, i32 noundef %add, i32 noundef 0, ptr noundef nonnull %agg.tmp, ptr noundef nonnull %7, i64 noundef -9223372036854775808, i64 noundef -9223372036854775808)
  %call.i = call noundef zeroext i1 @_ZNSt6vectorIhSaIhEE16_M_shrink_to_fitEv(ptr noundef nonnull align 8 dereferenceable(24) %m_tilebuffer)
  br label %if.end14

if.end14:                                         ; preds = %if.then2, %if.end
  %ok.0 = phi i1 [ %call9, %if.then2 ], [ true, %if.end ]
  call void @_ZN18OpenImageIO_v2_6_011ImageOutput13ioproxy_clearEv(ptr noundef nonnull align 8 dereferenceable(184) %this)
  br label %return

return:                                           ; preds = %entry, %if.end14
  %retval.0 = phi i1 [ %ok.0, %if.end14 ], [ true, %entry ]
  ret i1 %retval.0
}